target datalayout = "e-m:e-p270:32:32-p271:32:32-p272:64:64-i64:64-i128:128-f80:128-n8:16:32:64-S128"
target triple = "x86_64-pc-linux-gnu"

%struct.uv__queue = type { ptr, ptr }
%struct.uv_process_s = type { ptr, ptr, i32, ptr, %struct.uv__queue, %union.anon.3, ptr, i32, ptr, i32, %struct.uv__queue, i32 }
%union.anon.3 = type { [4 x ptr] }

; Function Attrs: nounwind uwtable
define dso_local i32 @uv_kill(i32 noundef %0, i32 noundef %1) #0 {
  %3 = alloca i32, align 4
  %4 = alloca i32, align 4
  %5 = alloca i32, align 4
  store i32 %0, ptr %4, align 4
  store i32 %1, ptr %5, align 4
  %6 = load i32, ptr %4, align 4
  %7 = load i32, ptr %5, align 4
  %8 = call i32 @kill(i32 noundef %6, i32 noundef %7) #9
  %9 = icmp ne i32 %8, 0
  br i1 %9, label %10, label %14

10:                                               ; preds = %2
  %11 = call ptr @__errno_location() #10
  %12 = load i32, ptr %11, align 4
  %13 = sub nsw i32 0, %12
  store i32 %13, ptr %3, align 4
  br label %15

14:                                               ; preds = %2
  store i32 0, ptr %3, align 4
  br label %15

15:                                               ; preds = %14, %10
  %16 = load i32, ptr %3, align 4
  ret i32 %16
}

; Function Attrs: nounwind uwtable
define dso_local i32 @uv_process_kill(ptr noundef %0, i32 noundef %1) #0 {
  %3 = alloca ptr, align 8
  %4 = alloca i32, align 4
  store ptr %0, ptr %3, align 8
  store i32 %1, ptr %4, align 4
  %5 = load ptr, ptr %3, align 8
  %6 = getelementptr inbounds nuw %struct.uv_process_s, ptr %5, i32 0, i32 9
  %7 = load i32, ptr %6, align 8
  %8 = load i32, ptr %4, align 4
  %9 = call i32 @uv_kill(i32 noundef %7, i32 noundef %8)
  ret i32 %9
}