; Function Attrs: nounwind uwtable
define dso_local range(i32 -2147483647, -2147483648) i32 @uv_process_kill(ptr noundef readonly captures(none) %0, i32 noundef %1) local_unnamed_addr #0 {
  %3 = getelementptr inbounds nuw i8, ptr %0, i64 104
  %4 = load i32, ptr %3, align 8
  %5 = tail call i32 @kill(i32 noundef %4, i32 noundef %1) #12
  %.not.i = icmp eq i32 %5, 0
  br i1 %.not.i, label %uv_kill.exit, label %6

6:                                                ; preds = %2
  %7 = tail call ptr @__errno_location() #13
  %8 = load i32, ptr %7, align 4
  %9 = sub nsw i32 0, %8
  br label %uv_kill.exit

uv_kill.exit:                                     ; preds = %2, %6
  %.0.i = phi i32 [ %9, %6 ], [ 0, %2 ]
  ret i32 %.0.i
}